target datalayout = "e-m:e-p270:32:32-p271:32:32-p272:64:64-i64:64-i128:128-f80:128-n8:16:32:64-S128"
target triple = "x86_64-pc-linux-gnu"

%"struct.NativeCallStackStorage::StackIndex" = type { i32 }
%class.NativeCallStackStorage = type { %class.ArrayWithFreeList, i32, ptr, %class.GrowableArrayCHeap.0, i8, %class.NativeCallStack }
%class.ArrayWithFreeList = type <{ %class.GrowableArrayCHeap, i32, [4 x i8] }>
%class.GrowableArrayCHeap = type { %class.GrowableArrayWithAllocator }
%class.GrowableArrayWithAllocator = type { %class.GrowableArrayView }
%class.GrowableArrayView = type { %class.GrowableArrayBase, ptr }
%class.GrowableArrayBase = type { i32, i32 }
%class.GrowableArrayCHeap.0 = type { %class.GrowableArrayWithAllocator.1 }
%class.GrowableArrayWithAllocator.1 = type { %class.GrowableArrayView.2 }
%class.GrowableArrayView.2 = type { %class.GrowableArrayBase, ptr }
%class.NativeCallStack = type { [4 x ptr] }
%"struct.NativeCallStackStorage::TableEntry" = type { i32, %"struct.NativeCallStackStorage::StackIndex" }
%"union.ArrayWithFreeList<NativeCallStackStorage::TableEntry, MEMFLAGS::mtNMT>::BackingElement" = type { %"struct.NativeCallStackStorage::TableEntry" }

; Function Attrs: mustprogress nounwind uwtable
define linkonce_odr hidden noundef ptr @_ZNK17GrowableArrayViewIN17ArrayWithFreeListIN22NativeCallStackStorage10TableEntryEL8MEMFLAGS12EE14BackingElementEE6adr_atEi(ptr noundef nonnull align 8 dereferenceable(16) %0, i32 noundef %1) #1 comdat align 2 {
  %3 = alloca ptr, align 8
  %4 = alloca i32, align 4
  store ptr %0, ptr %3, align 8
  store i32 %1, ptr %4, align 4
  %5 = load ptr, ptr %3, align 8
  %6 = getelementptr inbounds %class.GrowableArrayView, ptr %5, i32 0, i32 1
  %7 = load ptr, ptr %6, align 8
  %8 = load i32, ptr %4, align 4
  %9 = sext i32 %8 to i64
  %10 = getelementptr inbounds %"union.ArrayWithFreeList<NativeCallStackStorage::TableEntry, MEMFLAGS::mtNMT>::BackingElement", ptr %7, i64 %9
  ret ptr %10
}

; Function Attrs: mustprogress nounwind uwtable
define linkonce_odr hidden noundef i32 @_ZNK15NativeCallStack7compareERKS_(ptr noundef nonnull align 8 dereferenceable(32) %0, ptr noundef nonnull align 8 dereferenceable(32) %1) #1 comdat align 2 {
  %3 = alloca ptr, align 8
  %4 = alloca ptr, align 8
  store ptr %0, ptr %3, align 8
  store ptr %1, ptr %4, align 8
  %5 = load ptr, ptr %3, align 8
  %6 = getelementptr inbounds %class.NativeCallStack, ptr %5, i32 0, i32 0
  %7 = getelementptr inbounds [4 x ptr], ptr %6, i64 0, i64 0
  %8 = load ptr, ptr %4, align 8
  %9 = getelementptr inbounds %class.NativeCallStack, ptr %8, i32 0, i32 0
  %10 = getelementptr inbounds [4 x ptr], ptr %9, i64 0, i64 0
  %11 = call i32 @memcmp(ptr noundef %7, ptr noundef %10, i64 noundef 32) #8
  ret i32 %11
}

; Function Attrs: mustprogress nounwind uwtable
define linkonce_odr hidden noundef nonnull align 8 dereferenceable(32) ptr @_ZN17GrowableArrayViewI15NativeCallStackE2atEi(ptr noundef nonnull align 8 dereferenceable(16) %0, i32 noundef %1) #1 comdat align 2 {
  %3 = alloca ptr, align 8
  %4 = alloca i32, align 4
  store ptr %0, ptr %3, align 8
  store i32 %1, ptr %4, align 4
  %5 = load ptr, ptr %3, align 8
  %6 = getelementptr inbounds %class.GrowableArrayView.2, ptr %5, i32 0, i32 1
  %7 = load ptr, ptr %6, align 8
  %8 = load i32, ptr %4, align 4
  %9 = sext i32 %8 to i64
  %10 = getelementptr inbounds %class.NativeCallStack, ptr %7, i64 %9
  ret ptr %10
}

; Function Attrs: mustprogress nounwind uwtable
define linkonce_odr hidden noundef nonnull align 4 dereferenceable(8) ptr @_ZN17GrowableArrayViewIN17ArrayWithFreeListIN22NativeCallStackStorage10TableEntryEL8MEMFLAGS12EE14BackingElementEE2atEi(ptr noundef nonnull align 8 dereferenceable(16) %0, i32 noundef %1) #1 comdat align 2 {
  %3 = alloca ptr, align 8
  %4 = alloca i32, align 4
  store ptr %0, ptr %3, align 8
  store i32 %1, ptr %4, align 4
  %5 = load ptr, ptr %3, align 8
  %6 = getelementptr inbounds %class.GrowableArrayView, ptr %5, i32 0, i32 1
  %7 = load ptr, ptr %6, align 8
  %8 = load i32, ptr %4, align 4
  %9 = sext i32 %8 to i64
  %10 = getelementptr inbounds %"union.ArrayWithFreeList<NativeCallStackStorage::TableEntry, MEMFLAGS::mtNMT>::BackingElement", ptr %7, i64 %9
  ret ptr %10
}

; Function Attrs: mustprogress nounwind uwtable
define linkonce_odr hidden void @_ZNK17ArrayWithFreeListIN22NativeCallStackStorage10TableEntryEL8MEMFLAGS12EE43static_assert_E_satisfies_type_requirementsEv(ptr noundef nonnull align 8 dereferenceable(20) %0) #1 comdat align 2 {
  %2 = alloca ptr, align 8
  store ptr %0, ptr %2, align 8
  ret void
}

; Function Attrs: mustprogress nounwind uwtable
define linkonce_odr hidden noundef i32 @_ZN17ArrayWithFreeListIN22NativeCallStackStorage10TableEntryEL8MEMFLAGS12EE8allocateIJiNS0_10StackIndexEEEEiDpT_(ptr noundef nonnull align 8 dereferenceable(20) %0, i32 noundef %1, i32 %2) #1 comdat align 2 {
  %4 = alloca %"struct.NativeCallStackStorage::StackIndex", align 4
  %5 = alloca ptr, align 8
  %6 = alloca i32, align 4
  %7 = alloca ptr, align 8
  %8 = alloca i32, align 4
  %9 = alloca %"union.ArrayWithFreeList<NativeCallStackStorage::TableEntry, MEMFLAGS::mtNMT>::BackingElement", align 4
  %10 = getelementptr inbounds %"struct.NativeCallStackStorage::StackIndex", ptr %4, i32 0, i32 0
  store i32 %2, ptr %10, align 4
  store ptr %0, ptr %5, align 8
  store i32 %1, ptr %6, align 4
  %11 = load ptr, ptr %5, align 8
  call void @_ZNK17ArrayWithFreeListIN22NativeCallStackStorage10TableEntryEL8MEMFLAGS12EE43static_assert_E_satisfies_type_requirementsEv(ptr noundef nonnull align 8 dereferenceable(20) %11)
  %12 = getelementptr inbounds %class.ArrayWithFreeList, ptr %11, i32 0, i32 1
  %13 = load i32, ptr %12, align 8
  %14 = icmp ne i32 %13, -1
  br i1 %14, label %15, label %25

15:                                               ; preds = %3
  %16 = getelementptr inbounds %class.ArrayWithFreeList, ptr %11, i32 0, i32 0
  %17 = getelementptr inbounds %class.ArrayWithFreeList, ptr %11, i32 0, i32 1
  %18 = load i32, ptr %17, align 8
  %19 = call noundef nonnull align 4 dereferenceable(8) ptr @_ZN17GrowableArrayViewIN17ArrayWithFreeListIN22NativeCallStackStorage10TableEntryEL8MEMFLAGS12EE14BackingElementEE2atEi(ptr noundef nonnull align 8 dereferenceable(16) %16, i32 noundef %18)
  store ptr %19, ptr %7, align 8
  %20 = getelementptr inbounds %class.ArrayWithFreeList, ptr %11, i32 0, i32 1
  %21 = load i32, ptr %20, align 8
  store i32 %21, ptr %8, align 4
  %22 = load ptr, ptr %7, align 8
  %23 = load i32, ptr %22, align 4
  %24 = getelementptr inbounds %class.ArrayWithFreeList, ptr %11, i32 0, i32 1
  store i32 %23, ptr %24, align 8
  br label %31

25:                                               ; preds = %3
  %26 = getelementptr inbounds %class.ArrayWithFreeList, ptr %11, i32 0, i32 0
  call void @llvm.memset.p0.i64(ptr align 4 %9, i8 0, i64 8, i1 false)
  %27 = call noundef i32 @_ZN26GrowableArrayWithAllocatorIN17ArrayWithFreeListIN22NativeCallStackStorage10TableEntryEL8MEMFLAGS12EE14BackingElementE18GrowableArrayCHeapIS5_LS3_12EEE6appendERKS5_(ptr noundef nonnull align 8 dereferenceable(16) %26, ptr noundef nonnull align 4 dereferenceable(8) %9)
  store i32 %27, ptr %8, align 4
  %28 = getelementptr inbounds %class.ArrayWithFreeList, ptr %11, i32 0, i32 0
  %29 = load i32, ptr %8, align 4
  %30 = call noundef ptr @_ZNK17GrowableArrayViewIN17ArrayWithFreeListIN22NativeCallStackStorage10TableEntryEL8MEMFLAGS12EE14BackingElementEE6adr_atEi(ptr noundef nonnull align 8 dereferenceable(16) %28, i32 noundef %29)
  store ptr %30, ptr %7, align 8
  br label %31

31:                                               ; preds = %25, %15
  %32 = load ptr, ptr %7, align 8
  %33 = getelementptr inbounds %"struct.NativeCallStackStorage::TableEntry", ptr %32, i32 0, i32 0
  %34 = load i32, ptr %6, align 4
  store i32 %34, ptr %33, align 4
  %35 = getelementptr inbounds %"struct.NativeCallStackStorage::TableEntry", ptr %32, i32 0, i32 1
  call void @llvm.memcpy.p0.p0.i64(ptr align 4 %35, ptr align 4 %4, i64 4, i1 false)
  %36 = load i32, ptr %8, align 4
  ret i32 %36
}

; Function Attrs: mustprogress nounwind uwtable
define linkonce_odr hidden noundef zeroext i1 @_ZNK15NativeCallStack6equalsERKS_(ptr noundef nonnull align 8 dereferenceable(32) %0, ptr noundef nonnull align 8 dereferenceable(32) %1) #1 comdat align 2 {
  %3 = alloca ptr, align 8
  %4 = alloca ptr, align 8
  store ptr %0, ptr %3, align 8
  store ptr %1, ptr %4, align 8
  %5 = load ptr, ptr %3, align 8
  %6 = load ptr, ptr %4, align 8
  %7 = call noundef i32 @_ZNK15NativeCallStack7compareERKS_(ptr noundef nonnull align 8 dereferenceable(32) %5, ptr noundef nonnull align 8 dereferenceable(32) %6)
  %8 = icmp eq i32 %7, 0
  ret i1 %8
}

; Function Attrs: mustprogress nounwind uwtable
define linkonce_odr hidden noundef nonnull align 8 dereferenceable(32) ptr @_ZN22NativeCallStackStorage3getENS_10StackIndexE(ptr noundef nonnull align 8 dereferenceable(96) %0, i32 %1) #1 comdat align 2 {
  %3 = alloca ptr, align 8
  %4 = alloca %"struct.NativeCallStackStorage::StackIndex", align 4
  %5 = alloca ptr, align 8
  %6 = getelementptr inbounds %"struct.NativeCallStackStorage::StackIndex", ptr %4, i32 0, i32 0
  store i32 %1, ptr %6, align 4
  store ptr %0, ptr %5, align 8
  %7 = load ptr, ptr %5, align 8
  %8 = getelementptr inbounds %"struct.NativeCallStackStorage::StackIndex", ptr %4, i32 0, i32 0
  %9 = load i32, ptr %8, align 4
  %10 = icmp eq i32 %9, -1
  br i1 %10, label %11, label %13

11:                                               ; preds = %2
  %12 = getelementptr inbounds %class.NativeCallStackStorage, ptr %7, i32 0, i32 5
  store ptr %12, ptr %3, align 8
  br label %18

13:                                               ; preds = %2
  %14 = getelementptr inbounds %class.NativeCallStackStorage, ptr %7, i32 0, i32 3
  %15 = getelementptr inbounds %"struct.NativeCallStackStorage::StackIndex", ptr %4, i32 0, i32 0
  %16 = load i32, ptr %15, align 4
  %17 = call noundef nonnull align 8 dereferenceable(32) ptr @_ZN17GrowableArrayViewI15NativeCallStackE2atEi(ptr noundef nonnull align 8 dereferenceable(16) %14, i32 noundef %16)
  store ptr %17, ptr %3, align 8
  br label %18

18:                                               ; preds = %13, %11
  %19 = load ptr, ptr %3, align 8
  ret ptr %19
}

; Function Attrs: mustprogress nounwind uwtable
define linkonce_odr hidden noundef nonnull align 4 dereferenceable(8) ptr @_ZN17ArrayWithFreeListIN22NativeCallStackStorage10TableEntryEL8MEMFLAGS12EE2atEi(ptr noundef nonnull align 8 dereferenceable(20) %0, i32 noundef %1) #1 comdat align 2 {
  %3 = alloca ptr, align 8
  %4 = alloca i32, align 4
  store ptr %0, ptr %3, align 8
  store i32 %1, ptr %4, align 4
  %5 = load ptr, ptr %3, align 8
  call void @_ZNK17ArrayWithFreeListIN22NativeCallStackStorage10TableEntryEL8MEMFLAGS12EE43static_assert_E_satisfies_type_requirementsEv(ptr noundef nonnull align 8 dereferenceable(20) %5)
  %6 = getelementptr inbounds %class.ArrayWithFreeList, ptr %5, i32 0, i32 0
  %7 = load i32, ptr %4, align 4
  %8 = call noundef nonnull align 4 dereferenceable(8) ptr @_ZN17GrowableArrayViewIN17ArrayWithFreeListIN22NativeCallStackStorage10TableEntryEL8MEMFLAGS12EE14BackingElementEE2atEi(ptr noundef nonnull align 8 dereferenceable(16) %6, i32 noundef %7)
  ret ptr %8
}

; Function Attrs: mustprogress nounwind uwtable
define linkonce_odr hidden noundef i32 @_ZNK15NativeCallStack14calculate_hashEv(ptr noundef nonnull align 8 dereferenceable(32) %0) #1 comdat align 2 {
  %2 = alloca ptr, align 8
  %3 = alloca i64, align 8
  %4 = alloca i32, align 4
  store ptr %0, ptr %2, align 8
  %5 = load ptr, ptr %2, align 8
  store i64 0, ptr %3, align 8
  store i32 0, ptr %4, align 4
  br label %6

6:                                                ; preds = %18, %1
  %7 = load i32, ptr %4, align 4
  %8 = icmp slt i32 %7, 4
  br i1 %8, label %9, label %21

9:                                                ; preds = %6
  %10 = getelementptr inbounds %class.NativeCallStack, ptr %5, i32 0, i32 0
  %11 = load i32, ptr %4, align 4
  %12 = sext i32 %11 to i64
  %13 = getelementptr inbounds [4 x ptr], ptr %10, i64 0, i64 %12
  %14 = load ptr, ptr %13, align 8
  %15 = ptrtoint ptr %14 to i64
  %16 = load i64, ptr %3, align 8
  %17 = add i64 %16, %15
  store i64 %17, ptr %3, align 8
  br label %18

18:                                               ; preds = %9
  %19 = load i32, ptr %4, align 4
  %20 = add nsw i32 %19, 1
  store i32 %20, ptr %4, align 4
  br label %6, !llvm.loop !8

21:                                               ; preds = %6
  %22 = load i64, ptr %3, align 8
  %23 = trunc i64 %22 to i32
  ret i32 %23
}

; Function Attrs: mustprogress nounwind uwtable
define hidden i32 @_ZN22NativeCallStackStorage3putERK15NativeCallStack(ptr noundef nonnull align 8 dereferenceable(96) %0, ptr noundef nonnull align 8 dereferenceable(32) %1) #1 align 2 {
  %3 = alloca %"struct.NativeCallStackStorage::StackIndex", align 4
  %4 = alloca ptr, align 8
  %5 = alloca ptr, align 8
  %6 = alloca i32, align 4
  %7 = alloca i32, align 4
  %8 = alloca ptr, align 8
  %9 = alloca %"struct.NativeCallStackStorage::StackIndex", align 4
  %10 = alloca i32, align 4
  %11 = alloca i32, align 4
  %12 = alloca %"struct.NativeCallStackStorage::StackIndex", align 4
  store ptr %0, ptr %4, align 8
  store ptr %1, ptr %5, align 8
  %13 = load ptr, ptr %4, align 8
  %14 = load ptr, ptr %5, align 8
  %15 = call noundef i32 @_ZNK15NativeCallStack14calculate_hashEv(ptr noundef nonnull align 8 dereferenceable(32) %14)
  %16 = getelementptr inbounds %class.NativeCallStackStorage, ptr %13, i32 0, i32 1
  %17 = load i32, ptr %16, align 8
  %18 = urem i32 %15, %17
  store i32 %18, ptr %6, align 4
  %19 = getelementptr inbounds %class.NativeCallStackStorage, ptr %13, i32 0, i32 2
  %20 = load ptr, ptr %19, align 8
  %21 = load i32, ptr %6, align 4
  %22 = sext i32 %21 to i64
  %23 = getelementptr inbounds i32, ptr %20, i64 %22
  %24 = load i32, ptr %23, align 4
  store i32 %24, ptr %7, align 4
  br label %25

25:                                               ; preds = %42, %2
  %26 = load i32, ptr %7, align 4
  %27 = icmp ne i32 %26, -1
  br i1 %27, label %28, label %46

28:                                               ; preds = %25
  %29 = getelementptr inbounds %class.NativeCallStackStorage, ptr %13, i32 0, i32 0
  %30 = load i32, ptr %7, align 4
  %31 = call noundef nonnull align 4 dereferenceable(8) ptr @_ZN17ArrayWithFreeListIN22NativeCallStackStorage10TableEntryEL8MEMFLAGS12EE2atEi(ptr noundef nonnull align 8 dereferenceable(20) %29, i32 noundef %30)
  store ptr %31, ptr %8, align 8
  %32 = load ptr, ptr %5, align 8
  %33 = load ptr, ptr %8, align 8
  %34 = getelementptr inbounds %"struct.NativeCallStackStorage::TableEntry", ptr %33, i32 0, i32 1
  call void @llvm.memcpy.p0.p0.i64(ptr align 4 %9, ptr align 4 %34, i64 4, i1 false)
  %35 = getelementptr inbounds %"struct.NativeCallStackStorage::StackIndex", ptr %9, i32 0, i32 0
  %36 = load i32, ptr %35, align 4
  %37 = call noundef nonnull align 8 dereferenceable(32) ptr @_ZN22NativeCallStackStorage3getENS_10StackIndexE(ptr noundef nonnull align 8 dereferenceable(96) %13, i32 %36)
  %38 = call noundef zeroext i1 @_ZNK15NativeCallStack6equalsERKS_(ptr noundef nonnull align 8 dereferenceable(32) %32, ptr noundef nonnull align 8 dereferenceable(32) %37)
  br i1 %38, label %39, label %42

39:                                               ; preds = %28
  %40 = load ptr, ptr %8, align 8
  %41 = getelementptr inbounds %"struct.NativeCallStackStorage::TableEntry", ptr %40, i32 0, i32 1
  call void @llvm.memcpy.p0.p0.i64(ptr align 4 %3, ptr align 4 %41, i64 4, i1 false)
  br label %68

42:                                               ; preds = %28
  %43 = load ptr, ptr %8, align 8
  %44 = getelementptr inbounds %"struct.NativeCallStackStorage::TableEntry", ptr %43, i32 0, i32 0
  %45 = load i32, ptr %44, align 4
  store i32 %45, ptr %7, align 4
  br label %25, !llvm.loop !6

46:                                               ; preds = %25
  %47 = getelementptr inbounds %class.NativeCallStackStorage, ptr %13, i32 0, i32 3
  %48 = load ptr, ptr %5, align 8
  %49 = call noundef i32 @_ZN26GrowableArrayWithAllocatorI15NativeCallStack18GrowableArrayCHeapIS0_L8MEMFLAGS12EEE6appendERKS0_(ptr noundef nonnull align 8 dereferenceable(16) %47, ptr noundef nonnull align 8 dereferenceable(32) %48)
  store i32 %49, ptr %10, align 4
  %50 = getelementptr inbounds %"struct.NativeCallStackStorage::StackIndex", ptr %3, i32 0, i32 0
  %51 = load i32, ptr %10, align 4
  store i32 %51, ptr %50, align 4
  %52 = getelementptr inbounds %class.NativeCallStackStorage, ptr %13, i32 0, i32 0
  %53 = getelementptr inbounds %class.NativeCallStackStorage, ptr %13, i32 0, i32 2
  %54 = load ptr, ptr %53, align 8
  %55 = load i32, ptr %6, align 4
  %56 = sext i32 %55 to i64
  %57 = getelementptr inbounds i32, ptr %54, i64 %56
  %58 = load i32, ptr %57, align 4
  call void @llvm.memcpy.p0.p0.i64(ptr align 4 %12, ptr align 4 %3, i64 4, i1 false)
  %59 = getelementptr inbounds %"struct.NativeCallStackStorage::StackIndex", ptr %12, i32 0, i32 0
  %60 = load i32, ptr %59, align 4
  %61 = call noundef i32 @_ZN17ArrayWithFreeListIN22NativeCallStackStorage10TableEntryEL8MEMFLAGS12EE8allocateIJiNS0_10StackIndexEEEEiDpT_(ptr noundef nonnull align 8 dereferenceable(20) %52, i32 noundef %58, i32 %60)
  store i32 %61, ptr %11, align 4
  %62 = load i32, ptr %11, align 4
  %63 = getelementptr inbounds %class.NativeCallStackStorage, ptr %13, i32 0, i32 2
  %64 = load ptr, ptr %63, align 8
  %65 = load i32, ptr %6, align 4
  %66 = sext i32 %65 to i64
  %67 = getelementptr inbounds i32, ptr %64, i64 %66
  store i32 %62, ptr %67, align 4
  br label %68

68:                                               ; preds = %46, %39
  %69 = getelementptr inbounds %"struct.NativeCallStackStorage::StackIndex", ptr %3, i32 0, i32 0
  %70 = load i32, ptr %69, align 4
  ret i32 %70
}