; Function Attrs: mustprogress nounwind uwtable
define hidden i32 @_ZN22NativeCallStackStorage3putERK15NativeCallStack(ptr noundef nonnull align 8 dereferenceable(96) %0, ptr noundef nonnull align 8 dereferenceable(32) %1) local_unnamed_addr #0 align 2 {
  %3 = alloca %"union.ArrayWithFreeList<NativeCallStackStorage::TableEntry, MEMFLAGS::mtNMT>::BackingElement", align 8
  br label %4

4:                                                ; preds = %4, %2
  %indvars.iv.i = phi i64 [ 0, %2 ], [ %indvars.iv.next.i, %4 ]
  %.056.i = phi i64 [ 0, %2 ], [ %8, %4 ]
  %5 = getelementptr inbounds [4 x ptr], ptr %1, i64 0, i64 %indvars.iv.i
  %6 = load ptr, ptr %5, align 8
  %7 = ptrtoint ptr %6 to i64
  %8 = add i64 %.056.i, %7
  %indvars.iv.next.i = add nuw nsw i64 %indvars.iv.i, 1
  %exitcond.not.i = icmp eq i64 %indvars.iv.next.i, 4
  br i1 %exitcond.not.i, label %_ZNK15NativeCallStack14calculate_hashEv.exit, label %4, !llvm.loop !6

_ZNK15NativeCallStack14calculate_hashEv.exit:     ; preds = %4
  %9 = trunc i64 %8 to i32
  %10 = getelementptr inbounds i8, ptr %0, i64 24
  %11 = load i32, ptr %10, align 8
  %12 = urem i32 %9, %11
  %13 = getelementptr inbounds i8, ptr %0, i64 32
  %14 = load ptr, ptr %13, align 8
  %15 = sext i32 %12 to i64
  %16 = getelementptr inbounds i32, ptr %14, i64 %15
  %17 = getelementptr inbounds i8, ptr %0, i64 8
  %18 = load ptr, ptr %17, align 8
  %19 = getelementptr inbounds i8, ptr %0, i64 64
  %20 = getelementptr inbounds i8, ptr %0, i64 48
  %21 = load ptr, ptr %20, align 8
  br label %22

22:                                               ; preds = %23, %_ZNK15NativeCallStack14calculate_hashEv.exit
  %.0.in = phi ptr [ %16, %_ZNK15NativeCallStack14calculate_hashEv.exit ], [ %25, %23 ]
  %.0 = load i32, ptr %.0.in, align 4
  %.not = icmp eq i32 %.0, -1
  br i1 %.not, label %31, label %23

23:                                               ; preds = %22
  %24 = sext i32 %.0 to i64
  %25 = getelementptr inbounds %"union.ArrayWithFreeList<NativeCallStackStorage::TableEntry, MEMFLAGS::mtNMT>::BackingElement", ptr %18, i64 %24
  %26 = getelementptr inbounds i8, ptr %25, i64 4
  %.sroa.02.0.copyload = load i32, ptr %26, align 4
  %27 = icmp eq i32 %.sroa.02.0.copyload, -1
  %28 = sext i32 %.sroa.02.0.copyload to i64
  %29 = getelementptr inbounds %class.NativeCallStack, ptr %21, i64 %28
  %.0.i = select i1 %27, ptr %19, ptr %29
  %bcmp.i = tail call i32 @bcmp(ptr noundef nonnull dereferenceable(32) %1, ptr noundef nonnull dereferenceable(32) %.0.i, i64 32)
  %30 = icmp eq i32 %bcmp.i, 0
  br i1 %30, label %.loopexit, label %22, !llvm.loop !8

31:                                               ; preds = %22
  %32 = getelementptr inbounds i8, ptr %0, i64 40
  %33 = tail call noundef i32 @_ZN26GrowableArrayWithAllocatorI15NativeCallStack18GrowableArrayCHeapIS0_L8MEMFLAGS12EEE6appendERKS0_(ptr noundef nonnull align 8 dereferenceable(16) %32, ptr noundef nonnull align 8 dereferenceable(32) %1)
  %34 = load ptr, ptr %13, align 8
  %35 = getelementptr inbounds i32, ptr %34, i64 %15
  %36 = load i32, ptr %35, align 4
  call void @llvm.lifetime.start.p0(i64 8, ptr nonnull %3)
  %37 = getelementptr inbounds i8, ptr %0, i64 16
  %38 = load i32, ptr %37, align 8
  %.not.i = icmp eq i32 %38, -1
  br i1 %.not.i, label %44, label %39

39:                                               ; preds = %31
  %40 = load ptr, ptr %17, align 8
  %41 = sext i32 %38 to i64
  %42 = getelementptr inbounds %"union.ArrayWithFreeList<NativeCallStackStorage::TableEntry, MEMFLAGS::mtNMT>::BackingElement", ptr %40, i64 %41
  %43 = load i32, ptr %42, align 4
  store i32 %43, ptr %37, align 8
  br label %_ZN17ArrayWithFreeListIN22NativeCallStackStorage10TableEntryEL8MEMFLAGS12EE8allocateIJiNS0_10StackIndexEEEEiDpT_.exit

44:                                               ; preds = %31
  store i64 0, ptr %3, align 8
  %45 = call noundef i32 @_ZN26GrowableArrayWithAllocatorIN17ArrayWithFreeListIN22NativeCallStackStorage10TableEntryEL8MEMFLAGS12EE14BackingElementE18GrowableArrayCHeapIS5_LS3_12EEE6appendERKS5_(ptr noundef nonnull align 8 dereferenceable(16) %0, ptr noundef nonnull align 4 dereferenceable(8) %3)
  %46 = load ptr, ptr %17, align 8
  %47 = sext i32 %45 to i64
  %48 = getelementptr inbounds %"union.ArrayWithFreeList<NativeCallStackStorage::TableEntry, MEMFLAGS::mtNMT>::BackingElement", ptr %46, i64 %47
  br label %_ZN17ArrayWithFreeListIN22NativeCallStackStorage10TableEntryEL8MEMFLAGS12EE8allocateIJiNS0_10StackIndexEEEEiDpT_.exit

_ZN17ArrayWithFreeListIN22NativeCallStackStorage10TableEntryEL8MEMFLAGS12EE8allocateIJiNS0_10StackIndexEEEEiDpT_.exit: ; preds = %39, %44
  %.05.i = phi ptr [ %42, %39 ], [ %48, %44 ]
  %.0.i16 = phi i32 [ %38, %39 ], [ %45, %44 ]
  store i32 %36, ptr %.05.i, align 4
  %49 = getelementptr inbounds i8, ptr %.05.i, i64 4
  store i32 %33, ptr %49, align 4
  call void @llvm.lifetime.end.p0(i64 8, ptr nonnull %3)
  %50 = load ptr, ptr %13, align 8
  %51 = getelementptr inbounds i32, ptr %50, i64 %15
  store i32 %.0.i16, ptr %51, align 4
  br label %.loopexit

.loopexit:                                        ; preds = %23, %_ZN17ArrayWithFreeListIN22NativeCallStackStorage10TableEntryEL8MEMFLAGS12EE8allocateIJiNS0_10StackIndexEEEEiDpT_.exit
  %.sroa.014.0 = phi i32 [ %33, %_ZN17ArrayWithFreeListIN22NativeCallStackStorage10TableEntryEL8MEMFLAGS12EE8allocateIJiNS0_10StackIndexEEEEiDpT_.exit ], [ %.sroa.02.0.copyload, %23 ]
  ret i32 %.sroa.014.0
}